; Function Attrs: nounwind sspstrong uwtable
define dso_local zeroext i1 @visit_type_str(ptr noundef %v, ptr noundef %name, ptr noundef %obj, ptr noundef %errp) local_unnamed_addr #0 {
entry:
  %_now.i.i = alloca %struct.timeval, align 8
  %tobool.not = icmp eq ptr %obj, null
  br i1 %tobool.not, label %if.else, label %if.end

if.else:                                          ; preds = %entry
  tail call void @__assert_fail(ptr noundef nonnull @.str.10, ptr noundef nonnull @.str.1, i32 noundef 343, ptr noundef nonnull @__PRETTY_FUNCTION__.visit_type_str) #9
  unreachable

if.end:                                           ; preds = %entry
  call void @llvm.lifetime.start.p0(i64 16, ptr nonnull %_now.i.i)
  %0 = load i32, ptr @trace_events_enabled_count, align 4
  %tobool.i.i = icmp ne i32 %0, 0
  %1 = load i16, ptr @_TRACE_VISIT_TYPE_STR_DSTATE, align 2
  %tobool4.i.i = icmp ne i16 %1, 0
  %or.cond.i.i = select i1 %tobool.i.i, i1 %tobool4.i.i, i1 false
  br i1 %or.cond.i.i, label %land.lhs.true5.i.i, label %trace_visit_type_str.exit

land.lhs.true5.i.i:                               ; preds = %if.end
  %2 = load i32, ptr @qemu_loglevel, align 4
  %and.i.i.i = and i32 %2, 32768
  %cmp.i.not.i.i = icmp eq i32 %and.i.i.i, 0
  br i1 %cmp.i.not.i.i, label %trace_visit_type_str.exit, label %if.then.i.i

if.then.i.i:                                      ; preds = %land.lhs.true5.i.i
  %3 = load i8, ptr @message_with_timestamp, align 1
  %tobool7.i.i = trunc i8 %3 to i1
  br i1 %tobool7.i.i, label %if.then8.i.i, label %if.else.i.i

if.then8.i.i:                                     ; preds = %if.then.i.i
  %call9.i.i = call i32 @gettimeofday(ptr noundef nonnull %_now.i.i, ptr noundef null) #10
  %call10.i.i = tail call i32 @qemu_get_thread_id() #10
  %4 = load i64, ptr %_now.i.i, align 8
  %tv_usec.i.i = getelementptr inbounds nuw i8, ptr %_now.i.i, i64 8
  %5 = load i64, ptr %tv_usec.i.i, align 8
  tail call void (ptr, ...) @qemu_log(ptr noundef nonnull @.str.74, i32 noundef %call10.i.i, i64 noundef %4, i64 noundef %5, ptr noundef %v, ptr noundef %name, ptr noundef nonnull %obj) #10
  br label %trace_visit_type_str.exit

if.else.i.i:                                      ; preds = %if.then.i.i
  tail call void (ptr, ...) @qemu_log(ptr noundef nonnull @.str.75, ptr noundef %v, ptr noundef %name, ptr noundef nonnull %obj) #10
  br label %trace_visit_type_str.exit

trace_visit_type_str.exit:                        ; preds = %if.end, %land.lhs.true5.i.i, %if.then8.i.i, %if.else.i.i
  call void @llvm.lifetime.end.p0(i64 16, ptr nonnull %_now.i.i)
  %type_str = getelementptr inbounds nuw i8, ptr %v, i64 104
  %6 = load ptr, ptr %type_str, align 8
  %call = tail call zeroext i1 %6(ptr noundef %v, ptr noundef %name, ptr noundef nonnull %obj, ptr noundef %errp) #10
  %type = getelementptr inbounds nuw i8, ptr %v, i64 160
  %7 = load i32, ptr %type, align 8
  %and = and i32 %7, 1
  %tobool1.not = icmp eq i32 %and, 0
  br i1 %tobool1.not, label %if.end9, label %if.then2

if.then2:                                         ; preds = %trace_visit_type_str.exit
  %8 = load ptr, ptr %obj, align 8
  %9 = icmp ne ptr %8, null
  %cmp.not = xor i1 %call, %9
  br i1 %cmp.not, label %if.else7, label %if.end9

if.else7:                                         ; preds = %if.then2
  tail call void @__assert_fail(ptr noundef nonnull @.str.4, ptr noundef nonnull @.str.1, i32 noundef 351, ptr noundef nonnull @__PRETTY_FUNCTION__.visit_type_str) #9
  unreachable

if.end9:                                          ; preds = %if.then2, %trace_visit_type_str.exit
  ret i1 %call
}